target datalayout = "e-m:e-p270:32:32-p271:32:32-p272:64:64-i64:64-i128:128-f80:128-n8:16:32:64-S128"
target triple = "x86_64-pc-linux-gnu"

%struct._generic_N_Vector = type { ptr, ptr, ptr }
%struct._N_VectorContent_Serial = type { i64, i32, ptr }

; Function Attrs: nounwind uwtable
define internal void @VaxpyVectorArray_Serial(i32 noundef %0, double noundef %1, ptr noundef %2, ptr noundef %3) #0 {
  %5 = alloca i32, align 4
  %6 = alloca double, align 8
  %7 = alloca ptr, align 8
  %8 = alloca ptr, align 8
  %9 = alloca i32, align 4
  %10 = alloca i64, align 8
  %11 = alloca i64, align 8
  %12 = alloca ptr, align 8
  %13 = alloca ptr, align 8
  %14 = alloca i32, align 4
  store i32 %0, ptr %5, align 4, !tbaa !74
  store double %1, ptr %6, align 8, !tbaa !72
  store ptr %2, ptr %7, align 8, !tbaa !75
  store ptr %3, ptr %8, align 8, !tbaa !75
  call void @llvm.lifetime.start.p0(i64 4, ptr %9) #6
  call void @llvm.lifetime.start.p0(i64 8, ptr %10) #6
  call void @llvm.lifetime.start.p0(i64 8, ptr %11) #6
  call void @llvm.lifetime.start.p0(i64 8, ptr %12) #6
  store ptr null, ptr %12, align 8, !tbaa !69
  call void @llvm.lifetime.start.p0(i64 8, ptr %13) #6
  store ptr null, ptr %13, align 8, !tbaa !69
  %15 = load ptr, ptr %7, align 8, !tbaa !75
  %16 = getelementptr inbounds ptr, ptr %15, i64 0
  %17 = load ptr, ptr %16, align 8, !tbaa !10
  %18 = getelementptr inbounds nuw %struct._generic_N_Vector, ptr %17, i32 0, i32 0
  %19 = load ptr, ptr %18, align 8, !tbaa !61
  %20 = getelementptr inbounds nuw %struct._N_VectorContent_Serial, ptr %19, i32 0, i32 0
  %21 = load i64, ptr %20, align 8, !tbaa !62
  store i64 %21, ptr %11, align 8, !tbaa !3
  %22 = load double, ptr %6, align 8, !tbaa !72
  %23 = fcmp oeq double %22, 1.000000e+00
  br i1 %23, label %24, label %70

24:                                               ; preds = %4
  store i32 0, ptr %9, align 4, !tbaa !74
  br label %25

25:                                               ; preds = %66, %24
  %26 = load i32, ptr %9, align 4, !tbaa !74
  %27 = load i32, ptr %5, align 4, !tbaa !74
  %28 = icmp slt i32 %26, %27
  br i1 %28, label %29, label %69

29:                                               ; preds = %25
  %30 = load ptr, ptr %7, align 8, !tbaa !75
  %31 = load i32, ptr %9, align 4, !tbaa !74
  %32 = sext i32 %31 to i64
  %33 = getelementptr inbounds ptr, ptr %30, i64 %32
  %34 = load ptr, ptr %33, align 8, !tbaa !10
  %35 = getelementptr inbounds nuw %struct._generic_N_Vector, ptr %34, i32 0, i32 0
  %36 = load ptr, ptr %35, align 8, !tbaa !61
  %37 = getelementptr inbounds nuw %struct._N_VectorContent_Serial, ptr %36, i32 0, i32 2
  %38 = load ptr, ptr %37, align 8, !tbaa !67
  store ptr %38, ptr %12, align 8, !tbaa !69
  %39 = load ptr, ptr %8, align 8, !tbaa !75
  %40 = load i32, ptr %9, align 4, !tbaa !74
  %41 = sext i32 %40 to i64
  %42 = getelementptr inbounds ptr, ptr %39, i64 %41
  %43 = load ptr, ptr %42, align 8, !tbaa !10
  %44 = getelementptr inbounds nuw %struct._generic_N_Vector, ptr %43, i32 0, i32 0
  %45 = load ptr, ptr %44, align 8, !tbaa !61
  %46 = getelementptr inbounds nuw %struct._N_VectorContent_Serial, ptr %45, i32 0, i32 2
  %47 = load ptr, ptr %46, align 8, !tbaa !67
  store ptr %47, ptr %13, align 8, !tbaa !69
  store i64 0, ptr %10, align 8, !tbaa !3
  br label %48

48:                                               ; preds = %62, %29
  %49 = load i64, ptr %10, align 8, !tbaa !3
  %50 = load i64, ptr %11, align 8, !tbaa !3
  %51 = icmp slt i64 %49, %50
  br i1 %51, label %52, label %65

52:                                               ; preds = %48
  %53 = load ptr, ptr %12, align 8, !tbaa !69
  %54 = load i64, ptr %10, align 8, !tbaa !3
  %55 = getelementptr inbounds double, ptr %53, i64 %54
  %56 = load double, ptr %55, align 8, !tbaa !72
  %57 = load ptr, ptr %13, align 8, !tbaa !69
  %58 = load i64, ptr %10, align 8, !tbaa !3
  %59 = getelementptr inbounds double, ptr %57, i64 %58
  %60 = load double, ptr %59, align 8, !tbaa !72
  %61 = fadd double %60, %56
  store double %61, ptr %59, align 8, !tbaa !72
  br label %62

62:                                               ; preds = %52
  %63 = load i64, ptr %10, align 8, !tbaa !3
  %64 = add nsw i64 %63, 1
  store i64 %64, ptr %10, align 8, !tbaa !3
  br label %48

65:                                               ; preds = %48
  br label %66

66:                                               ; preds = %65
  %67 = load i32, ptr %9, align 4, !tbaa !74
  %68 = add nsw i32 %67, 1
  store i32 %68, ptr %9, align 4, !tbaa !74
  br label %25

69:                                               ; preds = %25
  store i32 1, ptr %14, align 4
  br label %166

70:                                               ; preds = %4
  %71 = load double, ptr %6, align 8, !tbaa !72
  %72 = fcmp oeq double %71, -1.000000e+00
  br i1 %72, label %73, label %119

73:                                               ; preds = %70
  store i32 0, ptr %9, align 4, !tbaa !74
  br label %74

74:                                               ; preds = %115, %73
  %75 = load i32, ptr %9, align 4, !tbaa !74
  %76 = load i32, ptr %5, align 4, !tbaa !74
  %77 = icmp slt i32 %75, %76
  br i1 %77, label %78, label %118

78:                                               ; preds = %74
  %79 = load ptr, ptr %7, align 8, !tbaa !75
  %80 = load i32, ptr %9, align 4, !tbaa !74
  %81 = sext i32 %80 to i64
  %82 = getelementptr inbounds ptr, ptr %79, i64 %81
  %83 = load ptr, ptr %82, align 8, !tbaa !10
  %84 = getelementptr inbounds nuw %struct._generic_N_Vector, ptr %83, i32 0, i32 0
  %85 = load ptr, ptr %84, align 8, !tbaa !61
  %86 = getelementptr inbounds nuw %struct._N_VectorContent_Serial, ptr %85, i32 0, i32 2
  %87 = load ptr, ptr %86, align 8, !tbaa !67
  store ptr %87, ptr %12, align 8, !tbaa !69
  %88 = load ptr, ptr %8, align 8, !tbaa !75
  %89 = load i32, ptr %9, align 4, !tbaa !74
  %90 = sext i32 %89 to i64
  %91 = getelementptr inbounds ptr, ptr %88, i64 %90
  %92 = load ptr, ptr %91, align 8, !tbaa !10
  %93 = getelementptr inbounds nuw %struct._generic_N_Vector, ptr %92, i32 0, i32 0
  %94 = load ptr, ptr %93, align 8, !tbaa !61
  %95 = getelementptr inbounds nuw %struct._N_VectorContent_Serial, ptr %94, i32 0, i32 2
  %96 = load ptr, ptr %95, align 8, !tbaa !67
  store ptr %96, ptr %13, align 8, !tbaa !69
  store i64 0, ptr %10, align 8, !tbaa !3
  br label %97

97:                                               ; preds = %111, %78
  %98 = load i64, ptr %10, align 8, !tbaa !3
  %99 = load i64, ptr %11, align 8, !tbaa !3
  %100 = icmp slt i64 %98, %99
  br i1 %100, label %101, label %114

101:                                              ; preds = %97
  %102 = load ptr, ptr %12, align 8, !tbaa !69
  %103 = load i64, ptr %10, align 8, !tbaa !3
  %104 = getelementptr inbounds double, ptr %102, i64 %103
  %105 = load double, ptr %104, align 8, !tbaa !72
  %106 = load ptr, ptr %13, align 8, !tbaa !69
  %107 = load i64, ptr %10, align 8, !tbaa !3
  %108 = getelementptr inbounds double, ptr %106, i64 %107
  %109 = load double, ptr %108, align 8, !tbaa !72
  %110 = fsub double %109, %105
  store double %110, ptr %108, align 8, !tbaa !72
  br label %111

111:                                              ; preds = %101
  %112 = load i64, ptr %10, align 8, !tbaa !3
  %113 = add nsw i64 %112, 1
  store i64 %113, ptr %10, align 8, !tbaa !3
  br label %97

114:                                              ; preds = %97
  br label %115

115:                                              ; preds = %114
  %116 = load i32, ptr %9, align 4, !tbaa !74
  %117 = add nsw i32 %116, 1
  store i32 %117, ptr %9, align 4, !tbaa !74
  br label %74

118:                                              ; preds = %74
  store i32 1, ptr %14, align 4
  br label %166

119:                                              ; preds = %70
  store i32 0, ptr %9, align 4, !tbaa !74
  br label %120

120:                                              ; preds = %162, %119
  %121 = load i32, ptr %9, align 4, !tbaa !74
  %122 = load i32, ptr %5, align 4, !tbaa !74
  %123 = icmp slt i32 %121, %122
  br i1 %123, label %124, label %165

124:                                              ; preds = %120
  %125 = load ptr, ptr %7, align 8, !tbaa !75
  %126 = load i32, ptr %9, align 4, !tbaa !74
  %127 = sext i32 %126 to i64
  %128 = getelementptr inbounds ptr, ptr %125, i64 %127
  %129 = load ptr, ptr %128, align 8, !tbaa !10
  %130 = getelementptr inbounds nuw %struct._generic_N_Vector, ptr %129, i32 0, i32 0
  %131 = load ptr, ptr %130, align 8, !tbaa !61
  %132 = getelementptr inbounds nuw %struct._N_VectorContent_Serial, ptr %131, i32 0, i32 2
  %133 = load ptr, ptr %132, align 8, !tbaa !67
  store ptr %133, ptr %12, align 8, !tbaa !69
  %134 = load ptr, ptr %8, align 8, !tbaa !75
  %135 = load i32, ptr %9, align 4, !tbaa !74
  %136 = sext i32 %135 to i64
  %137 = getelementptr inbounds ptr, ptr %134, i64 %136
  %138 = load ptr, ptr %137, align 8, !tbaa !10
  %139 = getelementptr inbounds nuw %struct._generic_N_Vector, ptr %138, i32 0, i32 0
  %140 = load ptr, ptr %139, align 8, !tbaa !61
  %141 = getelementptr inbounds nuw %struct._N_VectorContent_Serial, ptr %140, i32 0, i32 2
  %142 = load ptr, ptr %141, align 8, !tbaa !67
  store ptr %142, ptr %13, align 8, !tbaa !69
  store i64 0, ptr %10, align 8, !tbaa !3
  br label %143

143:                                              ; preds = %158, %124
  %144 = load i64, ptr %10, align 8, !tbaa !3
  %145 = load i64, ptr %11, align 8, !tbaa !3
  %146 = icmp slt i64 %144, %145
  br i1 %146, label %147, label %161

147:                                              ; preds = %143
  %148 = load double, ptr %6, align 8, !tbaa !72
  %149 = load ptr, ptr %12, align 8, !tbaa !69
  %150 = load i64, ptr %10, align 8, !tbaa !3
  %151 = getelementptr inbounds double, ptr %149, i64 %150
  %152 = load double, ptr %151, align 8, !tbaa !72
  %153 = load ptr, ptr %13, align 8, !tbaa !69
  %154 = load i64, ptr %10, align 8, !tbaa !3
  %155 = getelementptr inbounds double, ptr %153, i64 %154
  %156 = load double, ptr %155, align 8, !tbaa !72
  %157 = call double @llvm.fmuladd.f64(double %148, double %152, double %156)
  store double %157, ptr %155, align 8, !tbaa !72
  br label %158

158:                                              ; preds = %147
  %159 = load i64, ptr %10, align 8, !tbaa !3
  %160 = add nsw i64 %159, 1
  store i64 %160, ptr %10, align 8, !tbaa !3
  br label %143

161:                                              ; preds = %143
  br label %162

162:                                              ; preds = %161
  %163 = load i32, ptr %9, align 4, !tbaa !74
  %164 = add nsw i32 %163, 1
  store i32 %164, ptr %9, align 4, !tbaa !74
  br label %120

165:                                              ; preds = %120
  store i32 0, ptr %14, align 4
  br label %166

166:                                              ; preds = %165, %118, %69
  call void @llvm.lifetime.end.p0(i64 8, ptr %13) #6
  call void @llvm.lifetime.end.p0(i64 8, ptr %12) #6
  call void @llvm.lifetime.end.p0(i64 8, ptr %11) #6
  call void @llvm.lifetime.end.p0(i64 8, ptr %10) #6
  call void @llvm.lifetime.end.p0(i64 4, ptr %9) #6
  %167 = load i32, ptr %14, align 4
  switch i32 %167, label %169 [
    i32 0, label %168
    i32 1, label %168
  ]

168:                                              ; preds = %166, %166
  ret void

169:                                              ; preds = %166
  unreachable
}