; Function Attrs: nofree norecurse nosync nounwind memory(readwrite, inaccessiblemem: none) uwtable
define internal fastcc void @VaxpyVectorArray_Serial(i32 noundef range(i32 2, 1) %0, double noundef %1, ptr noundef readonly captures(none) %2, ptr noundef readonly captures(none) %3) unnamed_addr #7 {
  %5 = load ptr, ptr %2, align 8, !tbaa !67
  %6 = load ptr, ptr %5, align 8, !tbaa !54
  %7 = load i64, ptr %6, align 8, !tbaa !55
  %8 = fcmp oeq double %1, 1.000000e+00
  br i1 %8, label %.preheader, label %28

.preheader:                                       ; preds = %4
  %9 = icmp sgt i32 %0, 0
  %10 = icmp sgt i64 %7, 0
  %or.cond = select i1 %9, i1 %10, i1 false
  br i1 %or.cond, label %.lr.ph.us64.preheader, label %.loopexit

.lr.ph.us64.preheader:                            ; preds = %.preheader
  %wide.trip.count83 = zext nneg i32 %0 to i64
  br label %.lr.ph.us64

.lr.ph.us64:                                      ; preds = %.lr.ph.us64.preheader, %._crit_edge.us65
  %indvars.iv80 = phi i64 [ 0, %.lr.ph.us64.preheader ], [ %indvars.iv.next81, %._crit_edge.us65 ]
  %11 = getelementptr inbounds nuw ptr, ptr %2, i64 %indvars.iv80
  %12 = load ptr, ptr %11, align 8, !tbaa !67
  %13 = load ptr, ptr %12, align 8, !tbaa !54
  %14 = getelementptr inbounds nuw i8, ptr %13, i64 16
  %15 = load ptr, ptr %14, align 8, !tbaa !61
  %16 = getelementptr inbounds nuw ptr, ptr %3, i64 %indvars.iv80
  %17 = load ptr, ptr %16, align 8, !tbaa !67
  %18 = load ptr, ptr %17, align 8, !tbaa !54
  %19 = getelementptr inbounds nuw i8, ptr %18, i64 16
  %20 = load ptr, ptr %19, align 8, !tbaa !61
  br label %21

21:                                               ; preds = %.lr.ph.us64, %21
  %.04561.us = phi i64 [ 0, %.lr.ph.us64 ], [ %27, %21 ]
  %22 = getelementptr inbounds nuw double, ptr %15, i64 %.04561.us
  %23 = load double, ptr %22, align 8, !tbaa !64
  %24 = getelementptr inbounds nuw double, ptr %20, i64 %.04561.us
  %25 = load double, ptr %24, align 8, !tbaa !64
  %26 = fadd double %23, %25
  store double %26, ptr %24, align 8, !tbaa !64
  %27 = add nuw nsw i64 %.04561.us, 1
  %exitcond79.not = icmp eq i64 %27, %7
  br i1 %exitcond79.not, label %._crit_edge.us65, label %21

._crit_edge.us65:                                 ; preds = %21
  %indvars.iv.next81 = add nuw nsw i64 %indvars.iv80, 1
  %exitcond84.not = icmp eq i64 %indvars.iv.next81, %wide.trip.count83
  br i1 %exitcond84.not, label %.loopexit, label %.lr.ph.us64

28:                                               ; preds = %4
  %29 = fcmp oeq double %1, -1.000000e+00
  %30 = icmp sgt i32 %0, 0
  %31 = icmp sgt i64 %7, 0
  %or.cond88 = select i1 %30, i1 %31, i1 false
  br i1 %29, label %.preheader49, label %.preheader51

.preheader51:                                     ; preds = %28
  br i1 %or.cond88, label %.lr.ph.us.preheader, label %.loopexit

.lr.ph.us.preheader:                              ; preds = %.preheader51
  %wide.trip.count = zext nneg i32 %0 to i64
  br label %.lr.ph.us

.lr.ph.us:                                        ; preds = %.lr.ph.us.preheader, %._crit_edge.us
  %indvars.iv = phi i64 [ 0, %.lr.ph.us.preheader ], [ %indvars.iv.next, %._crit_edge.us ]
  %32 = getelementptr inbounds nuw ptr, ptr %2, i64 %indvars.iv
  %33 = load ptr, ptr %32, align 8, !tbaa !67
  %34 = load ptr, ptr %33, align 8, !tbaa !54
  %35 = getelementptr inbounds nuw i8, ptr %34, i64 16
  %36 = load ptr, ptr %35, align 8, !tbaa !61
  %37 = getelementptr inbounds nuw ptr, ptr %3, i64 %indvars.iv
  %38 = load ptr, ptr %37, align 8, !tbaa !67
  %39 = load ptr, ptr %38, align 8, !tbaa !54
  %40 = getelementptr inbounds nuw i8, ptr %39, i64 16
  %41 = load ptr, ptr %40, align 8, !tbaa !61
  br label %42

42:                                               ; preds = %.lr.ph.us, %42
  %.24753.us = phi i64 [ 0, %.lr.ph.us ], [ %48, %42 ]
  %43 = getelementptr inbounds nuw double, ptr %36, i64 %.24753.us
  %44 = load double, ptr %43, align 8, !tbaa !64
  %45 = getelementptr inbounds nuw double, ptr %41, i64 %.24753.us
  %46 = load double, ptr %45, align 8, !tbaa !64
  %47 = tail call double @llvm.fmuladd.f64(double %1, double %44, double %46)
  store double %47, ptr %45, align 8, !tbaa !64
  %48 = add nuw nsw i64 %.24753.us, 1
  %exitcond.not = icmp eq i64 %48, %7
  br i1 %exitcond.not, label %._crit_edge.us, label %42

._crit_edge.us:                                   ; preds = %42
  %indvars.iv.next = add nuw nsw i64 %indvars.iv, 1
  %exitcond72.not = icmp eq i64 %indvars.iv.next, %wide.trip.count
  br i1 %exitcond72.not, label %.loopexit, label %.lr.ph.us

.preheader49:                                     ; preds = %28
  br i1 %or.cond88, label %.lr.ph.us59.preheader, label %.loopexit

.lr.ph.us59.preheader:                            ; preds = %.preheader49
  %wide.trip.count77 = zext nneg i32 %0 to i64
  br label %.lr.ph.us59

.lr.ph.us59:                                      ; preds = %.lr.ph.us59.preheader, %._crit_edge.us60
  %indvars.iv74 = phi i64 [ 0, %.lr.ph.us59.preheader ], [ %indvars.iv.next75, %._crit_edge.us60 ]
  %49 = getelementptr inbounds nuw ptr, ptr %2, i64 %indvars.iv74
  %50 = load ptr, ptr %49, align 8, !tbaa !67
  %51 = load ptr, ptr %50, align 8, !tbaa !54
  %52 = getelementptr inbounds nuw i8, ptr %51, i64 16
  %53 = load ptr, ptr %52, align 8, !tbaa !61
  %54 = getelementptr inbounds nuw ptr, ptr %3, i64 %indvars.iv74
  %55 = load ptr, ptr %54, align 8, !tbaa !67
  %56 = load ptr, ptr %55, align 8, !tbaa !54
  %57 = getelementptr inbounds nuw i8, ptr %56, i64 16
  %58 = load ptr, ptr %57, align 8, !tbaa !61
  br label %59

59:                                               ; preds = %.lr.ph.us59, %59
  %.14656.us = phi i64 [ 0, %.lr.ph.us59 ], [ %65, %59 ]
  %60 = getelementptr inbounds nuw double, ptr %53, i64 %.14656.us
  %61 = load double, ptr %60, align 8, !tbaa !64
  %62 = getelementptr inbounds nuw double, ptr %58, i64 %.14656.us
  %63 = load double, ptr %62, align 8, !tbaa !64
  %64 = fsub double %63, %61
  store double %64, ptr %62, align 8, !tbaa !64
  %65 = add nuw nsw i64 %.14656.us, 1
  %exitcond73.not = icmp eq i64 %65, %7
  br i1 %exitcond73.not, label %._crit_edge.us60, label %59

._crit_edge.us60:                                 ; preds = %59
  %indvars.iv.next75 = add nuw nsw i64 %indvars.iv74, 1
  %exitcond78.not = icmp eq i64 %indvars.iv.next75, %wide.trip.count77
  br i1 %exitcond78.not, label %.loopexit, label %.lr.ph.us59

.loopexit:                                        ; preds = %._crit_edge.us, %._crit_edge.us60, %._crit_edge.us65, %.preheader51, %.preheader49, %.preheader
  ret void
}